target datalayout = "e-m:e-p270:32:32-p271:32:32-p272:64:64-i64:64-i128:128-f80:128-n8:16:32:64-S128"
target triple = "x86_64-pc-linux-gnu"

@.str.1 = private unnamed_addr constant [9 x i8] c"no value\00", align 1
@luaT_typenames = external hidden constant [0 x ptr], align 8

; Function Attrs: nounwind uwtable
define dso_local ptr @lua_typename(ptr noundef %0, i32 noundef %1) #0 {
  %3 = alloca ptr, align 8
  %4 = alloca i32, align 4
  store ptr %0, ptr %3, align 8, !tbaa !4
  store i32 %1, ptr %4, align 4, !tbaa !25
  %5 = load i32, ptr %4, align 4, !tbaa !25
  %6 = icmp eq i32 %5, -1
  br i1 %6, label %7, label %8

7:                                                ; preds = %2
  br label %13

8:                                                ; preds = %2
  %9 = load i32, ptr %4, align 4, !tbaa !25
  %10 = sext i32 %9 to i64
  %11 = getelementptr inbounds [0 x ptr], ptr @luaT_typenames, i64 0, i64 %10
  %12 = load ptr, ptr %11, align 8, !tbaa !52
  br label %13

13:                                               ; preds = %8, %7
  %14 = phi ptr [ @.str.1, %7 ], [ %12, %8 ]
  ret ptr %14
}